; Function Attrs: mustprogress nofree norecurse nosync nounwind willreturn memory(argmem: read) uwtable
define dso_local { <2 x float>, <2 x float> } @_ZNK11btConeShape16coneLocalSupportERK9btVector3(ptr nocapture noundef nonnull readonly align 8 dereferenceable(96) %this, ptr nocapture noundef nonnull readonly align 4 dereferenceable(16) %v) local_unnamed_addr #4 align 2 {
entry:
  %retval = alloca %class.btVector3, align 8
  %m_height = getelementptr inbounds i8, ptr %this, i64 80
  %0 = load float, ptr %m_height, align 8
  %mul = fmul float %0, 5.000000e-01
  %m_coneIndices = getelementptr inbounds i8, ptr %this, i64 84
  %arrayidx = getelementptr inbounds i8, ptr %this, i64 88
  %1 = load i32, ptr %arrayidx, align 8
  %idxprom = sext i32 %1 to i64
  %arrayidx2 = getelementptr inbounds float, ptr %v, i64 %idxprom
  %2 = load float, ptr %arrayidx2, align 4
  %3 = load float, ptr %v, align 4
  %arrayidx5.i.i.i = getelementptr inbounds i8, ptr %v, i64 4
  %4 = load float, ptr %arrayidx5.i.i.i, align 4
  %mul8.i.i.i = fmul float %4, %4
  %5 = tail call float @llvm.fmuladd.f32(float %3, float %3, float %mul8.i.i.i)
  %arrayidx10.i.i.i = getelementptr inbounds i8, ptr %v, i64 8
  %6 = load float, ptr %arrayidx10.i.i.i, align 4
  %7 = tail call noundef float @llvm.fmuladd.f32(float %6, float %6, float %5)
  %sqrt.i = tail call noundef float @llvm.sqrt.f32(float %7)
  %m_sinAngle = getelementptr inbounds i8, ptr %this, i64 72
  %8 = load float, ptr %m_sinAngle, align 8
  %mul4 = fmul float %8, %sqrt.i
  %cmp = fcmp ogt float %2, %mul4
  %9 = load i32, ptr %m_coneIndices, align 4
  %idxprom8 = sext i32 %9 to i64
  br i1 %cmp, label %if.then, label %if.else

if.then:                                          ; preds = %entry
  %arrayidx9 = getelementptr inbounds float, ptr %retval, i64 %idxprom8
  store float 0.000000e+00, ptr %arrayidx9, align 4
  %arrayidx14 = getelementptr inbounds float, ptr %retval, i64 %idxprom
  store float %mul, ptr %arrayidx14, align 4
  %arrayidx17 = getelementptr inbounds i8, ptr %this, i64 92
  %10 = load i32, ptr %arrayidx17, align 4
  %idxprom18 = sext i32 %10 to i64
  br label %return

if.else:                                          ; preds = %entry
  %arrayidx24 = getelementptr inbounds float, ptr %v, i64 %idxprom8
  %11 = load float, ptr %arrayidx24, align 4
  %arrayidx33 = getelementptr inbounds i8, ptr %this, i64 92
  %12 = load i32, ptr %arrayidx33, align 4
  %idxprom34 = sext i32 %12 to i64
  %arrayidx35 = getelementptr inbounds float, ptr %v, i64 %idxprom34
  %13 = load float, ptr %arrayidx35, align 4
  %mul41 = fmul float %13, %13
  %14 = tail call float @llvm.fmuladd.f32(float %11, float %11, float %mul41)
  %sqrt = tail call float @llvm.sqrt.f32(float %14)
  %cmp43 = fcmp ogt float %sqrt, 0x3E80000000000000
  br i1 %cmp43, label %if.then44, label %if.else72

if.then44:                                        ; preds = %if.else
  %m_radius = getelementptr inbounds i8, ptr %this, i64 76
  %15 = load float, ptr %m_radius, align 4
  %div = fdiv float %15, %sqrt
  %mul50 = fmul float %div, %11
  %arrayidx55 = getelementptr inbounds float, ptr %retval, i64 %idxprom8
  store float %mul50, ptr %arrayidx55, align 4
  %fneg = fneg float %mul
  %arrayidx60 = getelementptr inbounds float, ptr %retval, i64 %idxprom
  store float %fneg, ptr %arrayidx60, align 4
  %mul66 = fmul float %div, %13
  br label %return

if.else72:                                        ; preds = %if.else
  %arrayidx77 = getelementptr inbounds float, ptr %retval, i64 %idxprom8
  store float 0.000000e+00, ptr %arrayidx77, align 4
  %fneg78 = fneg float %mul
  %arrayidx83 = getelementptr inbounds float, ptr %retval, i64 %idxprom
  store float %fneg78, ptr %arrayidx83, align 4
  br label %return

return:                                           ; preds = %if.else72, %if.then44, %if.then
  %idxprom34.sink = phi i64 [ %idxprom34, %if.else72 ], [ %idxprom34, %if.then44 ], [ %idxprom18, %if.then ]
  %.sink = phi float [ 0.000000e+00, %if.else72 ], [ %mul66, %if.then44 ], [ 0.000000e+00, %if.then ]
  %arrayidx88 = getelementptr inbounds float, ptr %retval, i64 %idxprom34.sink
  store float %.sink, ptr %arrayidx88, align 4
  %.fca.0.load = load <2 x float>, ptr %retval, align 8
  %.fca.0.insert = insertvalue { <2 x float>, <2 x float> } poison, <2 x float> %.fca.0.load, 0
  %.fca.1.gep = getelementptr inbounds i8, ptr %retval, i64 8
  %.fca.1.load = load <2 x float>, ptr %.fca.1.gep, align 8
  %.fca.1.insert = insertvalue { <2 x float>, <2 x float> } %.fca.0.insert, <2 x float> %.fca.1.load, 1
  ret { <2 x float>, <2 x float> } %.fca.1.insert
}